target datalayout = "e-m:e-p270:32:32-p271:32:32-p272:64:64-i64:64-i128:128-f80:128-n8:16:32:64-S128"
target triple = "x86_64-pc-linux-gnu"

%struct._zval_struct = type { %union._zend_value, %union.anon, %union.anon.2 }
%union._zend_value = type { i64 }
%union.anon = type { i32 }
%union.anon.2 = type { i32 }
%struct._zend_execute_data = type { ptr, ptr, ptr, ptr, %struct._zval_struct, ptr, ptr, ptr, ptr }

; Function Attrs: nounwind uwtable
define hidden i32 @zend_jit_leave_func_helper(ptr noundef %0) #0 {
  %2 = alloca i32, align 4
  %3 = alloca ptr, align 8
  %4 = alloca i32, align 4
  store ptr %0, ptr %3, align 8
  %5 = load ptr, ptr %3, align 8
  %6 = getelementptr inbounds %struct._zend_execute_data, ptr %5, i32 0, i32 4
  %7 = getelementptr inbounds %struct._zval_struct, ptr %6, i32 0, i32 1
  %8 = load i32, ptr %7, align 8
  store i32 %8, ptr %4, align 4
  %9 = load i32, ptr %4, align 4
  %10 = and i32 %9, 131072
  %11 = icmp ne i32 %10, 0
  br i1 %11, label %12, label %18

12:                                               ; preds = %1
  br label %13

13:                                               ; preds = %12
  %14 = load i32, ptr %4, align 4
  %15 = load ptr, ptr %3, align 8
  %16 = call i32 @zend_jit_leave_top_func_helper(i32 noundef %14, ptr noundef %15)
  store i32 %16, ptr %2, align 4
  br label %24

17:                                               ; No predecessors!
  br label %24

18:                                               ; preds = %1
  br label %19

19:                                               ; preds = %18
  %20 = load i32, ptr %4, align 4
  %21 = load ptr, ptr %3, align 8
  %22 = call i32 @zend_jit_leave_nested_func_helper(i32 noundef %20, ptr noundef %21)
  store i32 %22, ptr %2, align 4
  br label %24

23:                                               ; No predecessors!
  br label %24

24:                                               ; preds = %23, %19, %17, %13
  %25 = load i32, ptr %2, align 4
  ret i32 %25
}