; Function Attrs: nounwind uwtable
define hidden noundef i32 @zend_jit_leave_func_helper(ptr noundef %0) local_unnamed_addr #0 {
  %2 = getelementptr inbounds i8, ptr %0, i64 40
  %3 = load i32, ptr %2, align 8
  %4 = and i32 %3, 131072
  %.not = icmp eq i32 %4, 0
  br i1 %.not, label %7, label %5

5:                                                ; preds = %1
  %6 = tail call i32 @zend_jit_leave_top_func_helper(i32 noundef %3, ptr noundef nonnull %0)
  br label %9

7:                                                ; preds = %1
  %8 = tail call i32 @zend_jit_leave_nested_func_helper(i32 noundef %3, ptr noundef nonnull %0)
  br label %9

9:                                                ; preds = %7, %5
  %.0 = phi i32 [ -1, %5 ], [ 2, %7 ]
  ret i32 %.0
}